target datalayout = "e-m:e-p270:32:32-p271:32:32-p272:64:64-i64:64-i128:128-f80:128-n8:16:32:64-S128"
target triple = "x86_64-pc-linux-gnu"

%struct.FLAC__StreamMetadata = type { i32, i32, i32, %union.anon }
%union.anon = type { %struct.FLAC__StreamMetadata_CueSheet }
%struct.FLAC__StreamMetadata_CueSheet = type { [129 x i8], i64, i32, i32, ptr }
%struct.FLAC__StreamMetadata_VorbisComment = type { %struct.FLAC__StreamMetadata_VorbisComment_Entry, i32, ptr }
%struct.FLAC__StreamMetadata_VorbisComment_Entry = type { i32, ptr }

; Function Attrs: nounwind sspstrong uwtable
define i32 @FLAC__metadata_object_vorbiscomment_set_comment(ptr noundef %0, i32 noundef %1, i32 %2, ptr %3, i32 noundef %4) #0 {
  %6 = alloca i32, align 4
  %7 = alloca %struct.FLAC__StreamMetadata_VorbisComment_Entry, align 8
  %8 = alloca ptr, align 8
  %9 = alloca i32, align 4
  %10 = alloca i32, align 4
  %11 = getelementptr inbounds nuw { i32, ptr }, ptr %7, i32 0, i32 0
  store i32 %2, ptr %11, align 8
  %12 = getelementptr inbounds nuw { i32, ptr }, ptr %7, i32 0, i32 1
  store ptr %3, ptr %12, align 8
  store ptr %0, ptr %8, align 8, !tbaa !7
  store i32 %1, ptr %9, align 4, !tbaa !3
  store i32 %4, ptr %10, align 4, !tbaa !3
  %13 = getelementptr inbounds nuw %struct.FLAC__StreamMetadata_VorbisComment_Entry, ptr %7, i32 0, i32 1
  %14 = load ptr, ptr %13, align 8, !tbaa !29
  %15 = getelementptr inbounds nuw %struct.FLAC__StreamMetadata_VorbisComment_Entry, ptr %7, i32 0, i32 0
  %16 = load i32, ptr %15, align 8, !tbaa !19
  %17 = call i32 @FLAC__format_vorbiscomment_entry_is_legal(ptr noundef %14, i32 noundef %16)
  %18 = icmp ne i32 %17, 0
  br i1 %18, label %20, label %19

19:                                               ; preds = %5
  store i32 0, ptr %6, align 4
  br label %31

20:                                               ; preds = %5
  %21 = load ptr, ptr %8, align 8, !tbaa !7
  %22 = load ptr, ptr %8, align 8, !tbaa !7
  %23 = getelementptr inbounds nuw %struct.FLAC__StreamMetadata, ptr %22, i32 0, i32 3
  %24 = getelementptr inbounds nuw %struct.FLAC__StreamMetadata_VorbisComment, ptr %23, i32 0, i32 2
  %25 = load ptr, ptr %24, align 8, !tbaa !16
  %26 = load i32, ptr %9, align 4, !tbaa !3
  %27 = zext i32 %26 to i64
  %28 = getelementptr inbounds nuw %struct.FLAC__StreamMetadata_VorbisComment_Entry, ptr %25, i64 %27
  %29 = load i32, ptr %10, align 4, !tbaa !3
  %30 = call i32 @vorbiscomment_set_entry_(ptr noundef %21, ptr noundef %28, ptr noundef %7, i32 noundef %29)
  store i32 %30, ptr %6, align 4
  br label %31

31:                                               ; preds = %20, %19
  %32 = load i32, ptr %6, align 4
  ret i32 %32
}