; Function Attrs: nounwind sspstrong uwtable
define range(i32 0, 2) i32 @FLAC__metadata_object_vorbiscomment_set_comment(ptr noundef captures(none) %0, i32 noundef %1, i32 %2, ptr %3, i32 noundef %4) local_unnamed_addr #5 {
  %6 = alloca %struct.FLAC__StreamMetadata_VorbisComment_Entry, align 8
  store i32 %2, ptr %6, align 8
  %7 = getelementptr inbounds nuw i8, ptr %6, i64 8
  store ptr %3, ptr %7, align 8
  %8 = tail call i32 @FLAC__format_vorbiscomment_entry_is_legal(ptr noundef %3, i32 noundef %2) #31
  %.not = icmp eq i32 %8, 0
  br i1 %.not, label %15, label %9

9:                                                ; preds = %5
  %10 = getelementptr inbounds nuw i8, ptr %0, i64 40
  %11 = load ptr, ptr %10, align 8, !tbaa !13
  %12 = zext i32 %1 to i64
  %13 = getelementptr inbounds nuw %struct.FLAC__StreamMetadata_VorbisComment_Entry, ptr %11, i64 %12
  %14 = call fastcc i32 @vorbiscomment_set_entry_(ptr noundef %0, ptr noundef %13, ptr noundef %6, i32 noundef %4)
  br label %15

15:                                               ; preds = %5, %9
  %.0 = phi i32 [ %14, %9 ], [ 0, %5 ]
  ret i32 %.0
}